; Function Attrs: mustprogress uwtable
define internal fastcc void @_ZN6json1112_GLOBAL__N_110JsonParser6expectERKNSt7__cxx1112basic_stringIcSt11char_traitsIcESaIcEEENS_4JsonE(ptr dead_on_unwind noalias nocapture writable writeonly align 8 %0, ptr nocapture noundef nonnull align 8 dereferenceable(32) %1, ptr noundef nonnull align 8 dereferenceable(32) %2, ptr nocapture noundef %3) unnamed_addr #0 align 2 personality ptr @__gxx_personality_v0 {
  %5 = alloca %"class.std::__cxx11::basic_string", align 8
  %6 = alloca %"class.std::__cxx11::basic_string", align 8
  %7 = alloca %"class.std::__cxx11::basic_string", align 8
  %8 = alloca %"class.std::__cxx11::basic_string", align 8
  %9 = getelementptr inbounds i8, ptr %1, i64 8
  %10 = load i64, ptr %9, align 8
  %11 = add i64 %10, -1
  store i64 %11, ptr %9, align 8
  %12 = load ptr, ptr %1, align 8
  %13 = tail call noundef i64 @_ZNKSt7__cxx1112basic_stringIcSt11char_traitsIcESaIcEE6lengthEv(ptr noundef nonnull align 8 dereferenceable(32) %2) #20
  %14 = tail call noundef i32 @_ZNKSt7__cxx1112basic_stringIcSt11char_traitsIcESaIcEE7compareEmmRKS4_(ptr noundef nonnull align 8 dereferenceable(32) %12, i64 noundef %11, i64 noundef %13, ptr noundef nonnull align 8 dereferenceable(32) %2)
  %15 = icmp eq i32 %14, 0
  br i1 %15, label %16, label %22

16:                                               ; preds = %4
  %17 = tail call noundef i64 @_ZNKSt7__cxx1112basic_stringIcSt11char_traitsIcESaIcEE6lengthEv(ptr noundef nonnull align 8 dereferenceable(32) %2) #20
  %18 = load i64, ptr %9, align 8
  %19 = add i64 %18, %17
  store i64 %19, ptr %9, align 8
  %20 = getelementptr inbounds i8, ptr %3, i64 8
  %21 = load <2 x ptr>, ptr %3, align 8
  store ptr null, ptr %20, align 8
  store <2 x ptr> %21, ptr %0, align 8
  store ptr null, ptr %3, align 8
  br label %53

22:                                               ; preds = %4
  call void @_ZStplIcSt11char_traitsIcESaIcEENSt7__cxx1112basic_stringIT_T0_T1_EEPKS5_RKS8_(ptr dead_on_unwind nonnull writable sret(%"class.std::__cxx11::basic_string") align 8 %7, ptr noundef nonnull @.str.19, ptr noundef nonnull align 8 dereferenceable(32) %2)
  %23 = invoke noundef nonnull align 8 dereferenceable(32) ptr @_ZNSt7__cxx1112basic_stringIcSt11char_traitsIcESaIcEE6appendEPKc(ptr noundef nonnull align 8 dereferenceable(32) %7, ptr noundef nonnull @.str.20)
          to label %24 unwind label %42

24:                                               ; preds = %22
  call void @_ZNSt7__cxx1112basic_stringIcSt11char_traitsIcESaIcEEC1EOS4_(ptr noundef nonnull align 8 dereferenceable(32) %6, ptr noundef nonnull align 8 dereferenceable(32) %23) #20
  %25 = load ptr, ptr %1, align 8
  %26 = load i64, ptr %9, align 8
  %27 = call noundef i64 @_ZNKSt7__cxx1112basic_stringIcSt11char_traitsIcESaIcEE6lengthEv(ptr noundef nonnull align 8 dereferenceable(32) %2) #20
  invoke void @_ZNKSt7__cxx1112basic_stringIcSt11char_traitsIcESaIcEE6substrEmm(ptr dead_on_unwind nonnull writable sret(%"class.std::__cxx11::basic_string") align 8 %8, ptr noundef nonnull align 8 dereferenceable(32) %25, i64 noundef %26, i64 noundef %27)
          to label %28 unwind label %44

28:                                               ; preds = %24
  %29 = call noundef i64 @_ZNKSt7__cxx1112basic_stringIcSt11char_traitsIcESaIcEE4sizeEv(ptr noundef nonnull align 8 dereferenceable(32) %6) #20, !noalias !76
  %30 = call noundef i64 @_ZNKSt7__cxx1112basic_stringIcSt11char_traitsIcESaIcEE4sizeEv(ptr noundef nonnull align 8 dereferenceable(32) %8) #20, !noalias !76
  %31 = add i64 %30, %29
  %32 = call noundef i64 @_ZNKSt7__cxx1112basic_stringIcSt11char_traitsIcESaIcEE8capacityEv(ptr noundef nonnull align 8 dereferenceable(32) %6) #20, !noalias !76
  %33 = icmp ugt i64 %31, %32
  br i1 %33, label %34, label %38

34:                                               ; preds = %28
  %35 = call noundef i64 @_ZNKSt7__cxx1112basic_stringIcSt11char_traitsIcESaIcEE8capacityEv(ptr noundef nonnull align 8 dereferenceable(32) %8) #20, !noalias !76
  %.not.i = icmp ugt i64 %31, %35
  br i1 %.not.i, label %38, label %36

36:                                               ; preds = %34
  %37 = invoke noundef nonnull align 8 dereferenceable(32) ptr @_ZNSt7__cxx1112basic_stringIcSt11char_traitsIcESaIcEE6insertEmRKS4_(ptr noundef nonnull align 8 dereferenceable(32) %8, i64 noundef 0, ptr noundef nonnull align 8 dereferenceable(32) %6)
          to label %40 unwind label %46

38:                                               ; preds = %34, %28
  %39 = invoke noundef nonnull align 8 dereferenceable(32) ptr @_ZNSt7__cxx1112basic_stringIcSt11char_traitsIcESaIcEE6appendERKS4_(ptr noundef nonnull align 8 dereferenceable(32) %6, ptr noundef nonnull align 8 dereferenceable(32) %8)
          to label %40 unwind label %46

40:                                               ; preds = %36, %38
  %.sink.i = phi ptr [ %37, %36 ], [ %39, %38 ]
  call void @_ZNSt7__cxx1112basic_stringIcSt11char_traitsIcESaIcEEC1EOS4_(ptr noundef nonnull align 8 dereferenceable(32) %5, ptr noundef nonnull align 8 dereferenceable(32) %.sink.i) #20
  invoke fastcc void @_ZN6json1112_GLOBAL__N_110JsonParser4failEONSt7__cxx1112basic_stringIcSt11char_traitsIcESaIcEEE(ptr dead_on_unwind noalias writable align 8 %0, ptr noundef nonnull align 8 dereferenceable(32) %1, ptr noundef nonnull align 8 dereferenceable(32) %5)
          to label %41 unwind label %48

41:                                               ; preds = %40
  call void @_ZNSt7__cxx1112basic_stringIcSt11char_traitsIcESaIcEED1Ev(ptr noundef nonnull align 8 dereferenceable(32) %5) #20
  call void @_ZNSt7__cxx1112basic_stringIcSt11char_traitsIcESaIcEED1Ev(ptr noundef nonnull align 8 dereferenceable(32) %8) #20
  call void @_ZNSt7__cxx1112basic_stringIcSt11char_traitsIcESaIcEED1Ev(ptr noundef nonnull align 8 dereferenceable(32) %6) #20
  call void @_ZNSt7__cxx1112basic_stringIcSt11char_traitsIcESaIcEED1Ev(ptr noundef nonnull align 8 dereferenceable(32) %7) #20
  br label %53

42:                                               ; preds = %22
  %43 = landingpad { ptr, i32 }
          cleanup
  br label %52

44:                                               ; preds = %24
  %45 = landingpad { ptr, i32 }
          cleanup
  br label %51

46:                                               ; preds = %38, %36
  %47 = landingpad { ptr, i32 }
          cleanup
  br label %50

48:                                               ; preds = %40
  %49 = landingpad { ptr, i32 }
          cleanup
  call void @_ZNSt7__cxx1112basic_stringIcSt11char_traitsIcESaIcEED1Ev(ptr noundef nonnull align 8 dereferenceable(32) %5) #20
  br label %50

50:                                               ; preds = %48, %46
  %.pn = phi { ptr, i32 } [ %49, %48 ], [ %47, %46 ]
  call void @_ZNSt7__cxx1112basic_stringIcSt11char_traitsIcESaIcEED1Ev(ptr noundef nonnull align 8 dereferenceable(32) %8) #20
  br label %51

51:                                               ; preds = %50, %44
  %.pn.pn = phi { ptr, i32 } [ %.pn, %50 ], [ %45, %44 ]
  call void @_ZNSt7__cxx1112basic_stringIcSt11char_traitsIcESaIcEED1Ev(ptr noundef nonnull align 8 dereferenceable(32) %6) #20
  br label %52

52:                                               ; preds = %51, %42
  %.pn.pn.pn = phi { ptr, i32 } [ %.pn.pn, %51 ], [ %43, %42 ]
  call void @_ZNSt7__cxx1112basic_stringIcSt11char_traitsIcESaIcEED1Ev(ptr noundef nonnull align 8 dereferenceable(32) %7) #20
  resume { ptr, i32 } %.pn.pn.pn

53:                                               ; preds = %41, %16
  ret void
}